; Function Attrs: mustprogress nofree nounwind willreturn memory(read, inaccessiblemem: none) uwtable
define dso_local { ptr, i64 } @_ZNK4llvm13MCInstPrinter13getOpcodeNameEj(ptr nocapture noundef nonnull readonly align 8 dereferenceable(58) %0, i32 noundef %1) local_unnamed_addr #4 align 2 {
  %3 = getelementptr inbounds nuw i8, ptr %0, i64 24
  %4 = load ptr, ptr %3, align 8
  %5 = getelementptr inbounds nuw i8, ptr %4, i64 16
  %6 = load ptr, ptr %5, align 8
  %7 = getelementptr inbounds nuw i8, ptr %4, i64 8
  %8 = load ptr, ptr %7, align 8
  %9 = zext i32 %1 to i64
  %10 = getelementptr inbounds i32, ptr %8, i64 %9
  %11 = load i32, ptr %10, align 4
  %12 = zext i32 %11 to i64
  %13 = getelementptr inbounds i8, ptr %6, i64 %12
  %.not.i.i = icmp eq ptr %6, null
  br i1 %.not.i.i, label %_ZNK4llvm11MCInstrInfo7getNameEj.exit, label %14

14:                                               ; preds = %2
  %15 = tail call noundef i64 @strlen(ptr noundef nonnull dereferenceable(1) %13) #13
  br label %_ZNK4llvm11MCInstrInfo7getNameEj.exit

_ZNK4llvm11MCInstrInfo7getNameEj.exit:            ; preds = %2, %14
  %16 = phi i64 [ %15, %14 ], [ 0, %2 ]
  %.fca.0.insert.i = insertvalue { ptr, i64 } poison, ptr %13, 0
  %.fca.1.insert.i = insertvalue { ptr, i64 } %.fca.0.insert.i, i64 %16, 1
  ret { ptr, i64 } %.fca.1.insert.i
}